target datalayout = "e-m:e-p270:32:32-p271:32:32-p272:64:64-i64:64-i128:128-f80:128-n8:16:32:64-S128"
target triple = "x86_64-pc-linux-gnu"

%struct.Mig_Man_t_ = type { ptr, i32, i32, i32, %struct.Vec_Ptr_t_, %struct.Vec_Int_t_, %struct.Vec_Int_t_, ptr, i32, i32, %struct.Vec_Int_t_, %struct.Vec_Int_t_, %struct.Vec_Int_t_, %struct.Vec_Int_t_, %struct.Vec_Int_t_, ptr }
%struct.Vec_Ptr_t_ = type { i32, i32, ptr }
%struct.Vec_Int_t_ = type { i32, i32, ptr }
%struct.Mig_Obj_t_ = type { [4 x %struct.Mig_Fan_t_] }
%struct.Mig_Fan_t_ = type { i32 }

; Function Attrs: nounwind uwtable
define internal ptr @Vec_PtrEntry(ptr noundef %0, i32 noundef %1) #0 {
  %3 = alloca ptr, align 8
  %4 = alloca i32, align 4
  store ptr %0, ptr %3, align 8
  store i32 %1, ptr %4, align 4
  %5 = load ptr, ptr %3, align 8
  %6 = getelementptr inbounds %struct.Vec_Ptr_t_, ptr %5, i32 0, i32 2
  %7 = load ptr, ptr %6, align 8
  %8 = load i32, ptr %4, align 4
  %9 = sext i32 %8 to i64
  %10 = getelementptr inbounds ptr, ptr %7, i64 %9
  %11 = load ptr, ptr %10, align 8
  ret ptr %11
}

; Function Attrs: nounwind uwtable
define internal i32 @Vec_PtrSize(ptr noundef %0) #0 {
  %2 = alloca ptr, align 8
  store ptr %0, ptr %2, align 8
  %3 = load ptr, ptr %2, align 8
  %4 = getelementptr inbounds %struct.Vec_Ptr_t_, ptr %3, i32 0, i32 1
  %5 = load i32, ptr %4, align 4
  ret i32 %5
}

; Function Attrs: nounwind uwtable
define void @Mig_ManStop(ptr noundef %0) #0 {
  %2 = alloca ptr, align 8
  store ptr %0, ptr %2, align 8
  %3 = load ptr, ptr %2, align 8
  %4 = getelementptr inbounds %struct.Mig_Man_t_, ptr %3, i32 0, i32 10
  %5 = getelementptr inbounds %struct.Vec_Int_t_, ptr %4, i32 0, i32 2
  %6 = load ptr, ptr %5, align 8
  %7 = icmp ne ptr %6, null
  br i1 %7, label %8, label %16

8:                                                ; preds = %1
  %9 = load ptr, ptr %2, align 8
  %10 = getelementptr inbounds %struct.Mig_Man_t_, ptr %9, i32 0, i32 10
  %11 = getelementptr inbounds %struct.Vec_Int_t_, ptr %10, i32 0, i32 2
  %12 = load ptr, ptr %11, align 8
  call void @free(ptr noundef %12) #12
  %13 = load ptr, ptr %2, align 8
  %14 = getelementptr inbounds %struct.Mig_Man_t_, ptr %13, i32 0, i32 10
  %15 = getelementptr inbounds %struct.Vec_Int_t_, ptr %14, i32 0, i32 2
  store ptr null, ptr %15, align 8
  br label %17

16:                                               ; preds = %1
  br label %17

17:                                               ; preds = %16, %8
  %18 = load ptr, ptr %2, align 8
  %19 = getelementptr inbounds %struct.Mig_Man_t_, ptr %18, i32 0, i32 14
  %20 = getelementptr inbounds %struct.Vec_Int_t_, ptr %19, i32 0, i32 2
  %21 = load ptr, ptr %20, align 8
  %22 = icmp ne ptr %21, null
  br i1 %22, label %23, label %31

23:                                               ; preds = %17
  %24 = load ptr, ptr %2, align 8
  %25 = getelementptr inbounds %struct.Mig_Man_t_, ptr %24, i32 0, i32 14
  %26 = getelementptr inbounds %struct.Vec_Int_t_, ptr %25, i32 0, i32 2
  %27 = load ptr, ptr %26, align 8
  call void @free(ptr noundef %27) #12
  %28 = load ptr, ptr %2, align 8
  %29 = getelementptr inbounds %struct.Mig_Man_t_, ptr %28, i32 0, i32 14
  %30 = getelementptr inbounds %struct.Vec_Int_t_, ptr %29, i32 0, i32 2
  store ptr null, ptr %30, align 8
  br label %32

31:                                               ; preds = %17
  br label %32

32:                                               ; preds = %31, %23
  %33 = load ptr, ptr %2, align 8
  %34 = getelementptr inbounds %struct.Mig_Man_t_, ptr %33, i32 0, i32 11
  %35 = getelementptr inbounds %struct.Vec_Int_t_, ptr %34, i32 0, i32 2
  %36 = load ptr, ptr %35, align 8
  %37 = icmp ne ptr %36, null
  br i1 %37, label %38, label %46

38:                                               ; preds = %32
  %39 = load ptr, ptr %2, align 8
  %40 = getelementptr inbounds %struct.Mig_Man_t_, ptr %39, i32 0, i32 11
  %41 = getelementptr inbounds %struct.Vec_Int_t_, ptr %40, i32 0, i32 2
  %42 = load ptr, ptr %41, align 8
  call void @free(ptr noundef %42) #12
  %43 = load ptr, ptr %2, align 8
  %44 = getelementptr inbounds %struct.Mig_Man_t_, ptr %43, i32 0, i32 11
  %45 = getelementptr inbounds %struct.Vec_Int_t_, ptr %44, i32 0, i32 2
  store ptr null, ptr %45, align 8
  br label %47

46:                                               ; preds = %32
  br label %47

47:                                               ; preds = %46, %38
  %48 = load ptr, ptr %2, align 8
  %49 = getelementptr inbounds %struct.Mig_Man_t_, ptr %48, i32 0, i32 13
  %50 = getelementptr inbounds %struct.Vec_Int_t_, ptr %49, i32 0, i32 2
  %51 = load ptr, ptr %50, align 8
  %52 = icmp ne ptr %51, null
  br i1 %52, label %53, label %61

53:                                               ; preds = %47
  %54 = load ptr, ptr %2, align 8
  %55 = getelementptr inbounds %struct.Mig_Man_t_, ptr %54, i32 0, i32 13
  %56 = getelementptr inbounds %struct.Vec_Int_t_, ptr %55, i32 0, i32 2
  %57 = load ptr, ptr %56, align 8
  call void @free(ptr noundef %57) #12
  %58 = load ptr, ptr %2, align 8
  %59 = getelementptr inbounds %struct.Mig_Man_t_, ptr %58, i32 0, i32 13
  %60 = getelementptr inbounds %struct.Vec_Int_t_, ptr %59, i32 0, i32 2
  store ptr null, ptr %60, align 8
  br label %62

61:                                               ; preds = %47
  br label %62

62:                                               ; preds = %61, %53
  %63 = load ptr, ptr %2, align 8
  %64 = getelementptr inbounds %struct.Mig_Man_t_, ptr %63, i32 0, i32 12
  %65 = getelementptr inbounds %struct.Vec_Int_t_, ptr %64, i32 0, i32 2
  %66 = load ptr, ptr %65, align 8
  %67 = icmp ne ptr %66, null
  br i1 %67, label %68, label %76

68:                                               ; preds = %62
  %69 = load ptr, ptr %2, align 8
  %70 = getelementptr inbounds %struct.Mig_Man_t_, ptr %69, i32 0, i32 12
  %71 = getelementptr inbounds %struct.Vec_Int_t_, ptr %70, i32 0, i32 2
  %72 = load ptr, ptr %71, align 8
  call void @free(ptr noundef %72) #12
  %73 = load ptr, ptr %2, align 8
  %74 = getelementptr inbounds %struct.Mig_Man_t_, ptr %73, i32 0, i32 12
  %75 = getelementptr inbounds %struct.Vec_Int_t_, ptr %74, i32 0, i32 2
  store ptr null, ptr %75, align 8
  br label %77

76:                                               ; preds = %62
  br label %77

77:                                               ; preds = %76, %68
  %78 = load ptr, ptr %2, align 8
  %79 = getelementptr inbounds %struct.Mig_Man_t_, ptr %78, i32 0, i32 8
  store i32 0, ptr %79, align 8
  br label %80

80:                                               ; preds = %116, %77
  %81 = load ptr, ptr %2, align 8
  %82 = getelementptr inbounds %struct.Mig_Man_t_, ptr %81, i32 0, i32 8
  %83 = load i32, ptr %82, align 8
  %84 = load ptr, ptr %2, align 8
  %85 = getelementptr inbounds %struct.Mig_Man_t_, ptr %84, i32 0, i32 4
  %86 = call i32 @Vec_PtrSize(ptr noundef %85)
  %87 = icmp slt i32 %83, %86
  br i1 %87, label %88, label %97

88:                                               ; preds = %80
  %89 = load ptr, ptr %2, align 8
  %90 = getelementptr inbounds %struct.Mig_Man_t_, ptr %89, i32 0, i32 4
  %91 = load ptr, ptr %2, align 8
  %92 = getelementptr inbounds %struct.Mig_Man_t_, ptr %91, i32 0, i32 8
  %93 = load i32, ptr %92, align 8
  %94 = call ptr @Vec_PtrEntry(ptr noundef %90, i32 noundef %93)
  %95 = load ptr, ptr %2, align 8
  %96 = getelementptr inbounds %struct.Mig_Man_t_, ptr %95, i32 0, i32 7
  store ptr %94, ptr %96, align 8
  br label %97

97:                                               ; preds = %88, %80
  %98 = phi i1 [ false, %80 ], [ true, %88 ]
  br i1 %98, label %99, label %121

99:                                               ; preds = %97
  %100 = load ptr, ptr %2, align 8
  %101 = getelementptr inbounds %struct.Mig_Man_t_, ptr %100, i32 0, i32 7
  %102 = load ptr, ptr %101, align 8
  %103 = getelementptr inbounds %struct.Mig_Obj_t_, ptr %102, i32 -1
  store ptr %103, ptr %101, align 8
  %104 = load ptr, ptr %2, align 8
  %105 = getelementptr inbounds %struct.Mig_Man_t_, ptr %104, i32 0, i32 7
  %106 = load ptr, ptr %105, align 8
  %107 = icmp ne ptr %106, null
  br i1 %107, label %108, label %114

108:                                              ; preds = %99
  %109 = load ptr, ptr %2, align 8
  %110 = getelementptr inbounds %struct.Mig_Man_t_, ptr %109, i32 0, i32 7
  %111 = load ptr, ptr %110, align 8
  call void @free(ptr noundef %111) #12
  %112 = load ptr, ptr %2, align 8
  %113 = getelementptr inbounds %struct.Mig_Man_t_, ptr %112, i32 0, i32 7
  store ptr null, ptr %113, align 8
  br label %115

114:                                              ; preds = %99
  br label %115

115:                                              ; preds = %114, %108
  br label %116

116:                                              ; preds = %115
  %117 = load ptr, ptr %2, align 8
  %118 = getelementptr inbounds %struct.Mig_Man_t_, ptr %117, i32 0, i32 8
  %119 = load i32, ptr %118, align 8
  %120 = add nsw i32 %119, 1
  store i32 %120, ptr %118, align 8
  br label %80, !llvm.loop !4

121:                                              ; preds = %97
  %122 = load ptr, ptr %2, align 8
  %123 = getelementptr inbounds %struct.Mig_Man_t_, ptr %122, i32 0, i32 4
  %124 = getelementptr inbounds %struct.Vec_Ptr_t_, ptr %123, i32 0, i32 2
  %125 = load ptr, ptr %124, align 8
  %126 = icmp ne ptr %125, null
  br i1 %126, label %127, label %135

127:                                              ; preds = %121
  %128 = load ptr, ptr %2, align 8
  %129 = getelementptr inbounds %struct.Mig_Man_t_, ptr %128, i32 0, i32 4
  %130 = getelementptr inbounds %struct.Vec_Ptr_t_, ptr %129, i32 0, i32 2
  %131 = load ptr, ptr %130, align 8
  call void @free(ptr noundef %131) #12
  %132 = load ptr, ptr %2, align 8
  %133 = getelementptr inbounds %struct.Mig_Man_t_, ptr %132, i32 0, i32 4
  %134 = getelementptr inbounds %struct.Vec_Ptr_t_, ptr %133, i32 0, i32 2
  store ptr null, ptr %134, align 8
  br label %136

135:                                              ; preds = %121
  br label %136

136:                                              ; preds = %135, %127
  %137 = load ptr, ptr %2, align 8
  %138 = getelementptr inbounds %struct.Mig_Man_t_, ptr %137, i32 0, i32 5
  %139 = getelementptr inbounds %struct.Vec_Int_t_, ptr %138, i32 0, i32 2
  %140 = load ptr, ptr %139, align 8
  %141 = icmp ne ptr %140, null
  br i1 %141, label %142, label %150

142:                                              ; preds = %136
  %143 = load ptr, ptr %2, align 8
  %144 = getelementptr inbounds %struct.Mig_Man_t_, ptr %143, i32 0, i32 5
  %145 = getelementptr inbounds %struct.Vec_Int_t_, ptr %144, i32 0, i32 2
  %146 = load ptr, ptr %145, align 8
  call void @free(ptr noundef %146) #12
  %147 = load ptr, ptr %2, align 8
  %148 = getelementptr inbounds %struct.Mig_Man_t_, ptr %147, i32 0, i32 5
  %149 = getelementptr inbounds %struct.Vec_Int_t_, ptr %148, i32 0, i32 2
  store ptr null, ptr %149, align 8
  br label %151

150:                                              ; preds = %136
  br label %151

151:                                              ; preds = %150, %142
  %152 = load ptr, ptr %2, align 8
  %153 = getelementptr inbounds %struct.Mig_Man_t_, ptr %152, i32 0, i32 6
  %154 = getelementptr inbounds %struct.Vec_Int_t_, ptr %153, i32 0, i32 2
  %155 = load ptr, ptr %154, align 8
  %156 = icmp ne ptr %155, null
  br i1 %156, label %157, label %165

157:                                              ; preds = %151
  %158 = load ptr, ptr %2, align 8
  %159 = getelementptr inbounds %struct.Mig_Man_t_, ptr %158, i32 0, i32 6
  %160 = getelementptr inbounds %struct.Vec_Int_t_, ptr %159, i32 0, i32 2
  %161 = load ptr, ptr %160, align 8
  call void @free(ptr noundef %161) #12
  %162 = load ptr, ptr %2, align 8
  %163 = getelementptr inbounds %struct.Mig_Man_t_, ptr %162, i32 0, i32 6
  %164 = getelementptr inbounds %struct.Vec_Int_t_, ptr %163, i32 0, i32 2
  store ptr null, ptr %164, align 8
  br label %166

165:                                              ; preds = %151
  br label %166

166:                                              ; preds = %165, %157
  %167 = load ptr, ptr %2, align 8
  %168 = getelementptr inbounds %struct.Mig_Man_t_, ptr %167, i32 0, i32 0
  %169 = load ptr, ptr %168, align 8
  %170 = icmp ne ptr %169, null
  br i1 %170, label %171, label %177

171:                                              ; preds = %166
  %172 = load ptr, ptr %2, align 8
  %173 = getelementptr inbounds %struct.Mig_Man_t_, ptr %172, i32 0, i32 0
  %174 = load ptr, ptr %173, align 8
  call void @free(ptr noundef %174) #12
  %175 = load ptr, ptr %2, align 8
  %176 = getelementptr inbounds %struct.Mig_Man_t_, ptr %175, i32 0, i32 0
  store ptr null, ptr %176, align 8
  br label %178

177:                                              ; preds = %166
  br label %178

178:                                              ; preds = %177, %171
  %179 = load ptr, ptr %2, align 8
  %180 = icmp ne ptr %179, null
  br i1 %180, label %181, label %183

181:                                              ; preds = %178
  %182 = load ptr, ptr %2, align 8
  call void @free(ptr noundef %182) #12
  store ptr null, ptr %2, align 8
  br label %184

183:                                              ; preds = %178
  br label %184

184:                                              ; preds = %183, %181
  ret void
}