; Function Attrs: nounwind uwtable
define void @Mig_ManStop(ptr noundef captures(none) initializes((80, 84)) %0) local_unnamed_addr #2 {
  %2 = getelementptr inbounds nuw i8, ptr %0, i64 96
  %3 = load ptr, ptr %2, align 8
  %.not = icmp eq ptr %3, null
  br i1 %.not, label %5, label %4

4:                                                ; preds = %1
  tail call void @free(ptr noundef nonnull %3) #16
  store ptr null, ptr %2, align 8
  br label %5

5:                                                ; preds = %1, %4
  %6 = getelementptr inbounds nuw i8, ptr %0, i64 160
  %7 = load ptr, ptr %6, align 8
  %.not48 = icmp eq ptr %7, null
  br i1 %.not48, label %9, label %8

8:                                                ; preds = %5
  tail call void @free(ptr noundef nonnull %7) #16
  store ptr null, ptr %6, align 8
  br label %9

9:                                                ; preds = %5, %8
  %10 = getelementptr inbounds nuw i8, ptr %0, i64 112
  %11 = load ptr, ptr %10, align 8
  %.not49 = icmp eq ptr %11, null
  br i1 %.not49, label %13, label %12

12:                                               ; preds = %9
  tail call void @free(ptr noundef nonnull %11) #16
  store ptr null, ptr %10, align 8
  br label %13

13:                                               ; preds = %9, %12
  %14 = getelementptr inbounds nuw i8, ptr %0, i64 144
  %15 = load ptr, ptr %14, align 8
  %.not50 = icmp eq ptr %15, null
  br i1 %.not50, label %17, label %16

16:                                               ; preds = %13
  tail call void @free(ptr noundef nonnull %15) #16
  store ptr null, ptr %14, align 8
  br label %17

17:                                               ; preds = %13, %16
  %18 = getelementptr inbounds nuw i8, ptr %0, i64 128
  %19 = load ptr, ptr %18, align 8
  %.not51 = icmp eq ptr %19, null
  br i1 %.not51, label %21, label %20

20:                                               ; preds = %17
  tail call void @free(ptr noundef nonnull %19) #16
  store ptr null, ptr %18, align 8
  br label %21

21:                                               ; preds = %17, %20
  %22 = getelementptr inbounds nuw i8, ptr %0, i64 80
  %23 = getelementptr i8, ptr %0, i64 28
  store i32 0, ptr %22, align 8
  %.val57 = load i32, ptr %23, align 4
  %24 = icmp sgt i32 %.val57, 0
  br i1 %24, label %.lr.ph, label %.critedge

.lr.ph:                                           ; preds = %21
  %25 = getelementptr i8, ptr %0, i64 32
  %26 = getelementptr inbounds nuw i8, ptr %0, i64 72
  br label %27

27:                                               ; preds = %.lr.ph, %27
  %storemerge58 = phi i32 [ 0, %.lr.ph ], [ %33, %27 ]
  %.val56 = load ptr, ptr %25, align 8
  %28 = sext i32 %storemerge58 to i64
  %29 = getelementptr inbounds ptr, ptr %.val56, i64 %28
  %30 = load ptr, ptr %29, align 8
  %31 = getelementptr inbounds i8, ptr %30, i64 -16
  store ptr %31, ptr %26, align 8
  tail call void @free(ptr noundef nonnull %31) #16
  store ptr null, ptr %26, align 8
  %32 = load i32, ptr %22, align 8
  %33 = add nsw i32 %32, 1
  store i32 %33, ptr %22, align 8
  %.val = load i32, ptr %23, align 4
  %34 = icmp slt i32 %33, %.val
  br i1 %34, label %27, label %.critedge, !llvm.loop !4

.critedge:                                        ; preds = %27, %21
  %35 = getelementptr inbounds nuw i8, ptr %0, i64 32
  %36 = load ptr, ptr %35, align 8
  %.not52 = icmp eq ptr %36, null
  br i1 %.not52, label %38, label %37

37:                                               ; preds = %.critedge
  tail call void @free(ptr noundef nonnull %36) #16
  store ptr null, ptr %35, align 8
  br label %38

38:                                               ; preds = %.critedge, %37
  %39 = getelementptr inbounds nuw i8, ptr %0, i64 48
  %40 = load ptr, ptr %39, align 8
  %.not53 = icmp eq ptr %40, null
  br i1 %.not53, label %42, label %41

41:                                               ; preds = %38
  tail call void @free(ptr noundef nonnull %40) #16
  store ptr null, ptr %39, align 8
  br label %42

42:                                               ; preds = %38, %41
  %43 = getelementptr inbounds nuw i8, ptr %0, i64 64
  %44 = load ptr, ptr %43, align 8
  %.not54 = icmp eq ptr %44, null
  br i1 %.not54, label %46, label %45

45:                                               ; preds = %42
  tail call void @free(ptr noundef nonnull %44) #16
  store ptr null, ptr %43, align 8
  br label %46

46:                                               ; preds = %42, %45
  %47 = load ptr, ptr %0, align 8
  %.not55 = icmp eq ptr %47, null
  br i1 %.not55, label %49, label %48

48:                                               ; preds = %46
  tail call void @free(ptr noundef nonnull %47) #16
  br label %49

49:                                               ; preds = %48, %46
  tail call void @free(ptr noundef nonnull %0) #16
  ret void
}